; Function Attrs: mustprogress nounwind uwtable
define hidden noundef nonnull ptr @_ZN6hermes8Variable17cloneIntoNewScopeEPNS_9ScopeDescE(ptr nocapture noundef nonnull readonly align 8 dereferenceable(65) %this, ptr noundef %newScope) local_unnamed_addr #0 align 2 {
entry:
  %call = tail call noalias noundef nonnull dereferenceable(72) ptr @_Znwm(i64 noundef 72) #28
  %parent = getelementptr inbounds i8, ptr %this, i64 56
  %0 = load ptr, ptr %parent, align 8
  %declKind = getelementptr inbounds i8, ptr %this, i64 40
  %1 = load i8, ptr %declKind, align 8
  %text = getelementptr inbounds i8, ptr %this, i64 48
  %agg.tmp.sroa.0.0.copyload = load ptr, ptr %text, align 8
  %valueType.i.i.i = getelementptr inbounds i8, ptr %call, i64 2
  store i16 1023, ptr %valueType.i.i.i, align 2
  %numBitmask_.i.i.i.i = getelementptr inbounds i8, ptr %call, i64 4
  store i16 7, ptr %numBitmask_.i.i.i.i, align 2
  %Users.i.i.i = getelementptr inbounds i8, ptr %call, i64 8
  %add.ptr.i.i.i.i.i.i.i.i = getelementptr inbounds i8, ptr %call, i64 24
  store ptr %add.ptr.i.i.i.i.i.i.i.i, ptr %Users.i.i.i, align 8
  %Size.i.i.i.i.i.i.i.i = getelementptr inbounds i8, ptr %call, i64 16
  store i32 0, ptr %Size.i.i.i.i.i.i.i.i, align 8
  %Capacity2.i.i.i.i.i.i.i.i = getelementptr inbounds i8, ptr %call, i64 20
  store i32 2, ptr %Capacity2.i.i.i.i.i.i.i.i, align 4
  store i8 124, ptr %call, align 8
  %declKind2.i.i = getelementptr inbounds i8, ptr %call, i64 40
  store i8 %1, ptr %declKind2.i.i, align 8
  %text.i.i = getelementptr inbounds i8, ptr %call, i64 48
  store ptr %agg.tmp.sroa.0.0.copyload, ptr %text.i.i, align 8
  %parent.i.i = getelementptr inbounds i8, ptr %call, i64 56
  store ptr %0, ptr %parent.i.i, align 8
  %strictImmutableBinding_.i.i = getelementptr inbounds i8, ptr %call, i64 64
  %cmp.i.i = icmp eq i8 %1, 0
  %frombool.i.i = zext i1 %cmp.i.i to i8
  store i8 %frombool.i.i, ptr %strictImmutableBinding_.i.i, align 8
  %variables_.i.i.i = getelementptr inbounds i8, ptr %0, i64 152
  %Size.i.i.i.i.i = getelementptr inbounds i8, ptr %0, i64 160
  %2 = load i32, ptr %Size.i.i.i.i.i, align 8
  %Capacity.i.i.i.i.i = getelementptr inbounds i8, ptr %0, i64 164
  %3 = load i32, ptr %Capacity.i.i.i.i.i, align 4
  %cmp.not.i.i.i.i = icmp ult i32 %2, %3
  br i1 %cmp.not.i.i.i.i, label %_ZN6hermes8VariableC2EPNS_9ScopeDescENS_18JavaScriptDeclKindENS_10IdentifierE.exit, label %if.then.i.i.i.i

if.then.i.i.i.i:                                  ; preds = %entry
  %add.ptr.i.i.i.i.i.i.i = getelementptr inbounds i8, ptr %0, i64 168
  tail call void @_ZN4llvh15SmallVectorBase8grow_podEPvmm(ptr noundef nonnull align 8 dereferenceable(16) %variables_.i.i.i, ptr noundef nonnull %add.ptr.i.i.i.i.i.i.i, i64 noundef 0, i64 noundef 8) #26
  %.pre.i.i.i.i = load i32, ptr %Size.i.i.i.i.i, align 8
  br label %_ZN6hermes8VariableC2EPNS_9ScopeDescENS_18JavaScriptDeclKindENS_10IdentifierE.exit

_ZN6hermes8VariableC2EPNS_9ScopeDescENS_18JavaScriptDeclKindENS_10IdentifierE.exit: ; preds = %entry, %if.then.i.i.i.i
  %4 = phi i32 [ %.pre.i.i.i.i, %if.then.i.i.i.i ], [ %2, %entry ]
  %5 = load ptr, ptr %variables_.i.i.i, align 8
  %conv.i3.i.i.i.i = zext i32 %4 to i64
  %add.ptr.i.i.i.i.i = getelementptr inbounds ptr, ptr %5, i64 %conv.i3.i.i.i.i
  store ptr %call, ptr %add.ptr.i.i.i.i.i, align 8
  %6 = load i32, ptr %Size.i.i.i.i.i, align 8
  %add.i.i.i.i = add i32 %6, 1
  store i32 %add.i.i.i.i, ptr %Size.i.i.i.i.i, align 8
  %strictImmutableBinding_ = getelementptr inbounds i8, ptr %this, i64 64
  %7 = load i8, ptr %strictImmutableBinding_, align 8
  %8 = and i8 %7, 1
  store i8 %8, ptr %strictImmutableBinding_.i.i, align 8
  %variables_.i = getelementptr inbounds i8, ptr %newScope, i64 152
  %Size.i.i.i = getelementptr inbounds i8, ptr %newScope, i64 160
  %9 = load i32, ptr %Size.i.i.i, align 8
  %Capacity.i.i.i = getelementptr inbounds i8, ptr %newScope, i64 164
  %10 = load i32, ptr %Capacity.i.i.i, align 4
  %cmp.not.i.i = icmp ult i32 %9, %10
  br i1 %cmp.not.i.i, label %_ZN6hermes9ScopeDesc11addVariableEPNS_8VariableE.exit, label %if.then.i.i

if.then.i.i:                                      ; preds = %_ZN6hermes8VariableC2EPNS_9ScopeDescENS_18JavaScriptDeclKindENS_10IdentifierE.exit
  %add.ptr.i.i.i.i.i3 = getelementptr inbounds i8, ptr %newScope, i64 168
  tail call void @_ZN4llvh15SmallVectorBase8grow_podEPvmm(ptr noundef nonnull align 8 dereferenceable(16) %variables_.i, ptr noundef nonnull %add.ptr.i.i.i.i.i3, i64 noundef 0, i64 noundef 8) #26
  %.pre.i.i = load i32, ptr %Size.i.i.i, align 8
  br label %_ZN6hermes9ScopeDesc11addVariableEPNS_8VariableE.exit

_ZN6hermes9ScopeDesc11addVariableEPNS_8VariableE.exit: ; preds = %_ZN6hermes8VariableC2EPNS_9ScopeDescENS_18JavaScriptDeclKindENS_10IdentifierE.exit, %if.then.i.i
  %11 = phi i32 [ %.pre.i.i, %if.then.i.i ], [ %9, %_ZN6hermes8VariableC2EPNS_9ScopeDescENS_18JavaScriptDeclKindENS_10IdentifierE.exit ]
  %12 = load ptr, ptr %variables_.i, align 8
  %conv.i3.i.i = zext i32 %11 to i64
  %add.ptr.i.i.i = getelementptr inbounds ptr, ptr %12, i64 %conv.i3.i.i
  store ptr %call, ptr %add.ptr.i.i.i, align 8
  %13 = load i32, ptr %Size.i.i.i, align 8
  %add.i.i = add i32 %13, 1
  store i32 %add.i.i, ptr %Size.i.i.i, align 8
  ret ptr %call
}